; Function Attrs: mustprogress nounwind uwtable
define noundef zeroext i1 @_ZN32pxrInternal_v0_24__pxrReserved__neERKNS_29HgiShaderFunctionGeometryDescES2_(ptr noundef nonnull align 8 dereferenceable(40) %0, ptr noundef nonnull align 8 dereferenceable(40) %1) local_unnamed_addr #0 personality ptr @__gxx_personality_v0 {
  %3 = load i32, ptr %0, align 8
  %4 = load i32, ptr %1, align 8
  %5 = icmp eq i32 %3, %4
  br i1 %5, label %6, label %_ZN32pxrInternal_v0_24__pxrReserved__eqERKNS_29HgiShaderFunctionGeometryDescES2_.exit

6:                                                ; preds = %2
  %7 = getelementptr inbounds nuw i8, ptr %0, i64 4
  %8 = load i32, ptr %7, align 4
  %9 = getelementptr inbounds nuw i8, ptr %1, i64 4
  %10 = load i32, ptr %9, align 4
  %11 = icmp eq i32 %8, %10
  br i1 %11, label %12, label %_ZN32pxrInternal_v0_24__pxrReserved__eqERKNS_29HgiShaderFunctionGeometryDescES2_.exit

12:                                               ; preds = %6
  %13 = getelementptr inbounds nuw i8, ptr %0, i64 8
  %14 = getelementptr inbounds nuw i8, ptr %1, i64 8
  %15 = tail call noundef i64 @_ZNKSt7__cxx1112basic_stringIcSt11char_traitsIcESaIcEE4sizeEv(ptr noundef nonnull align 8 dereferenceable(32) %13) #16
  %16 = tail call noundef i64 @_ZNKSt7__cxx1112basic_stringIcSt11char_traitsIcESaIcEE4sizeEv(ptr noundef nonnull align 8 dereferenceable(32) %14) #16
  %17 = icmp eq i64 %15, %16
  br i1 %17, label %18, label %_ZN32pxrInternal_v0_24__pxrReserved__eqERKNS_29HgiShaderFunctionGeometryDescES2_.exit

18:                                               ; preds = %12
  %19 = tail call noundef ptr @_ZNKSt7__cxx1112basic_stringIcSt11char_traitsIcESaIcEE4dataEv(ptr noundef nonnull align 8 dereferenceable(32) %13) #16
  %20 = tail call noundef ptr @_ZNKSt7__cxx1112basic_stringIcSt11char_traitsIcESaIcEE4dataEv(ptr noundef nonnull align 8 dereferenceable(32) %14) #16
  %21 = tail call noundef i64 @_ZNKSt7__cxx1112basic_stringIcSt11char_traitsIcESaIcEE4sizeEv(ptr noundef nonnull align 8 dereferenceable(32) %13) #16
  %22 = icmp eq i64 %21, 0
  br i1 %22, label %_ZN32pxrInternal_v0_24__pxrReserved__eqERKNS_29HgiShaderFunctionGeometryDescES2_.exit, label %23

23:                                               ; preds = %18
  %bcmp.i.i = tail call i32 @bcmp(ptr %19, ptr %20, i64 %21)
  %24 = icmp ne i32 %bcmp.i.i, 0
  br label %_ZN32pxrInternal_v0_24__pxrReserved__eqERKNS_29HgiShaderFunctionGeometryDescES2_.exit

_ZN32pxrInternal_v0_24__pxrReserved__eqERKNS_29HgiShaderFunctionGeometryDescES2_.exit: ; preds = %2, %6, %12, %18, %23
  %25 = phi i1 [ true, %6 ], [ true, %2 ], [ true, %12 ], [ %24, %23 ], [ false, %18 ]
  ret i1 %25
}